(lp0
(lp1
I372
aa(lp2
I3
aI6
aI13
aI16
aI21
aI25
aI40
aI43
aI49
aI54
aI62
aI63
aI84
aI92
aI96
aI101
aI116
aI129
aI149
aI150
aI162
aI168
aI170
aI174
aI176
aI177
aI179
aI197
aI202
aI204
aI208
aI221
aI225
aI228
aI248
aI263
aI266
aI274
aI275
aI278
aI287
aI303
aI310
aI311
aI315
aI317
aI320
aI322
aI329
aI330
aI377
aI379
aI394
aI406
aI411
aI421
aI444
aI445
aI450
aI466
aI468
aI472
aI483
aI492
aI496
aa(lp3
I7
aI8
aI11
aI12
aI20
aI26
aI32
aI37
aI41
aI44
aI45
aI48
aI52
aI53
aI57
aI61
aI64
aI67
aI70
aI71
aI76
aI78
aI80
aI83
aI87
aI89
aI90
aI91
aI97
aI100
aI106
aI108
aI113
aI121
aI130
aI143
aI147
aI167
aI169
aI181
aI192
aI196
aI203
aI207
aI214
aI224
aI238
aI245
aI249
aI253
aI259
aI261
aI269
aI280
aI285
aI292
aI293
aI305
aI308
aI309
aI313
aI327
aI337
aI339
aI340
aI341
aI346
aI349
aI350
aI351
aI363
aI367
aI370
aI381
aI383
aI386
aI395
aI397
aI399
aI407
aI410
aI415
aI419
aI423
aI424
aI425
aI431
aI433
aI437
aI439
aI441
aI446
aI454
aI461
aI464
aI467
aI471
aI476
aI481
aI484
aI486
aI494
aI498
aI499
aa(lp4
I35
aI55
aI72
aI77
aI98
aI119
aI134
aI144
aI145
aI146
aI161
aI171
aI190
aI193
aI212
aI216
aI229
aI240
aI246
aI250
aI258
aI262
aI267
aI300
aI307
aI319
aI338
aI342
aI355
aI357
aI375
aI389
aI390
aI401
aI427
aI438
aI449
aI453
aI487
aa(lp5
I4
aI9
aI14
aI15
aI24
aI27
aI29
aI36
aI38
aI60
aI69
aI85
aI95
aI105
aI107
aI109
aI111
aI115
aI125
aI126
aI127
aI128
aI139
aI142
aI157
aI166
aI175
aI219
aI220
aI223
aI227
aI233
aI234
aI239
aI270
aI281
aI286
aI289
aI298
aI323
aI324
aI334
aI347
aI382
aI384
aI391
aI396
aI413
aI434
aI442
aI456
aI470
aI491
aI493
aa(lp6
I10
aI22
aI50
aI86
aI88
aI124
aI137
aI156
aI160
aI178
aI200
aI209
aI222
aI230
aI241
aI242
aI255
aI273
aI299
aI301
aI326
aI331
aI360
aI380
aI404
aI409
aI436
aI440
aI465
aI497
aa(lp7
I18
aI34
aI58
aI65
aI66
aI73
aI75
aI79
aI82
aI117
aI120
aI132
aI135
aI141
aI154
aI186
aI251
aI260
aI279
aI284
aI288
aI290
aI306
aI318
aI343
aI348
aI354
aI358
aI369
aI387
aI388
aI417
aI418
aI448
aI460
aI473
aI478
aI482
aI495
aa(lp8
I5
aI23
aI28
aI31
aI51
aI56
aI59
aI81
aI102
aI103
aI110
aI112
aI114
aI123
aI133
aI136
aI138
aI140
aI148
aI151
aI152
aI155
aI158
aI163
aI172
aI173
aI180
aI182
aI183
aI188
aI189
aI191
aI194
aI195
aI198
aI199
aI201
aI205
aI206
aI215
aI217
aI218
aI226
aI231
aI235
aI236
aI237
aI247
aI252
aI254
aI256
aI265
aI271
aI276
aI277
aI282
aI283
aI294
aI295
aI296
aI297
aI304
aI316
aI321
aI325
aI332
aI333
aI335
aI344
aI345
aI352
aI353
aI356
aI359
aI361
aI362
aI364
aI365
aI368
aI373
aI374
aI376
aI378
aI385
aI392
aI400
aI402
aI405
aI408
aI414
aI416
aI422
aI426
aI430
aI435
aI443
aI447
aI451
aI452
aI455
aI457
aI458
aI459
aI463
aI469
aI474
aI475
aI485
aI488
aI489
aI490
aa(lp9
I104
aa(lp10
I0
aI1
aI2
aI17
aI19
aI30
aI33
aI39
aI42
aI46
aI47
aI68
aI74
aI93
aI94
aI99
aI118
aI122
aI131
aI153
aI159
aI164
aI165
aI184
aI185
aI187
aI210
aI211
aI213
aI232
aI243
aI244
aI257
aI264
aI268
aI272
aI291
aI302
aI312
aI314
aI328
aI336
aI366
aI371
aI393
aI398
aI403
aI412
aI420
aI428
aI429
aI432
aI462
aI477
aI479
aI480
aa.